; Function Attrs: nofree norecurse nosync nounwind memory(argmem: read) uwtable
define nonnull ptr @lv_cache_entry_get_data(ptr noundef readonly captures(address_is_null, ret: address, provenance) %0) local_unnamed_addr #2 {
  %.not = icmp eq ptr %0, null
  br i1 %.not, label %.preheader, label %2

.preheader:                                       ; preds = %1, %.preheader
  br label %.preheader

2:                                                ; preds = %1
  %3 = getelementptr inbounds nuw i8, ptr %0, i64 12
  %4 = load i32, ptr %3, align 4, !tbaa !11
  %5 = zext i32 %4 to i64
  %6 = sub nsw i64 0, %5
  %7 = getelementptr inbounds i8, ptr %0, i64 %6
  ret ptr %7
}